ARM GAS  C:\Users\pietr\AppData\Local\Temp\ccy81PFe.s 			page 1


   1              		.syntax unified
   2              		.cpu cortex-m0
   3              		.fpu softvfp
   4              		.eabi_attribute 20, 1
   5              		.eabi_attribute 21, 1
   6              		.eabi_attribute 23, 3
   7              		.eabi_attribute 24, 1
   8              		.eabi_attribute 25, 1
   9              		.eabi_attribute 26, 1
  10              		.eabi_attribute 30, 1
  11              		.eabi_attribute 34, 0
  12              		.eabi_attribute 18, 4
  13              		.thumb
  14              		.syntax unified
  15              		.file	"accelerometer.c"
  16              		.text
  17              	.Ltext0:
  18              		.cfi_sections	.debug_frame
  19              		.section	.text.accelerometerWriteRegister,"ax",%progbits
  20              		.align	2
  21              		.code	16
  22              		.thumb_func
  23              		.type	accelerometerWriteRegister, %function
  24              	accelerometerWriteRegister:
  25              	.LFB38:
  26              		.file 1 "accelerometer.c"
   1:accelerometer.c **** /* ========================================
   2:accelerometer.c ****  *
   3:accelerometer.c ****  * Copyright YOUR COMPANY, THE YEAR
   4:accelerometer.c ****  * All Rights Reserved
   5:accelerometer.c ****  * UNPUBLISHED, LICENSED SOFTWARE.
   6:accelerometer.c ****  *
   7:accelerometer.c ****  * CONFIDENTIAL AND PROPRIETARY INFORMATION
   8:accelerometer.c ****  * WHICH IS THE PROPERTY OF your company.
   9:accelerometer.c ****  *
  10:accelerometer.c ****  * ========================================
  11:accelerometer.c **** */
  12:accelerometer.c **** ///////////////////////////////////////////////////////////////////////////////
  13:accelerometer.c **** //  Includes
  14:accelerometer.c **** ///////////////////////////////////////////////////////////////////////////////
  15:accelerometer.c **** #include "accelerometer.h" // Interface for this file
  16:accelerometer.c **** 
  17:accelerometer.c **** // Standard Libraries
  18:accelerometer.c **** #include <stdbool.h>
  19:accelerometer.c **** #include <stdint.h>
  20:accelerometer.c **** #include <stdio.h>
  21:accelerometer.c **** #include <math.h>
  22:accelerometer.c **** 
  23:accelerometer.c **** #include <project.h>
  24:accelerometer.c **** 
  25:accelerometer.c **** #define ACCEL_ADDR 0x18
  26:accelerometer.c **** 
  27:accelerometer.c **** static bool accelerometerWriteRegister(uint8_t reg, uint8_t value);
  28:accelerometer.c **** static uint8_t accelerometerReadRegister(uint8_t reg);
  29:accelerometer.c **** 
  30:accelerometer.c **** void accelerometerInit(void){
  31:accelerometer.c ****     accelerometerWriteRegister(0x20, 0b01111111); //write CTRL_REG1
ARM GAS  C:\Users\pietr\AppData\Local\Temp\ccy81PFe.s 			page 2


  32:accelerometer.c ****     accelerometerWriteRegister(0x21, 0b00000100); //write CTRL_REG2
  33:accelerometer.c ****     accelerometerWriteRegister(0x22, 0b10000000); //write CTRL_REG3
  34:accelerometer.c ****     accelerometerWriteRegister(0x23, 0b00010000); //write CTRL_REG4
  35:accelerometer.c ****     accelerometerWriteRegister(0x24, 0b00000000); //write CTRL_REG5
  36:accelerometer.c ****     accelerometerWriteRegister(0x25, 0b00000000); //write CTRL_REG6
  37:accelerometer.c ****     accelerometerWriteRegister(0x26, 0b00000000); //write REFERENCE
  38:accelerometer.c ****     //single click configuration
  39:accelerometer.c ****     //accelerometerWriteRegister(0x38, 0b00010101); //write CLICK_CFG
  40:accelerometer.c ****     //double click configuration
  41:accelerometer.c ****     accelerometerWriteRegister(0x38, 0b00101010); //write CLICK_CFG
  42:accelerometer.c ****     
  43:accelerometer.c ****     // play with this value!
  44:accelerometer.c ****     accelerometerWriteRegister(0x3A, 0b00100000); //write CLICK_THS
  45:accelerometer.c ****     //time limit of 0x33 is sensitive and seemingly most reliable
  46:accelerometer.c ****     accelerometerWriteRegister(0x3B, 0x33); //write TIME_LIMIT
  47:accelerometer.c ****     
  48:accelerometer.c ****     //latency of 0x15 seems to be really good for double clicking
  49:accelerometer.c ****     accelerometerWriteRegister(0x3C, 0x15); //write TIME_LATENCY
  50:accelerometer.c ****     
  51:accelerometer.c ****     //window of 42 seems to be good for double clicking, 0xff works well too
  52:accelerometer.c ****     accelerometerWriteRegister(0x3D, 0x42); //write TIME_WINDOW
  53:accelerometer.c **** }
  54:accelerometer.c **** 
  55:accelerometer.c **** 
  56:accelerometer.c **** static uint8_t accelerometerReadRegister(uint8_t reg){
  57:accelerometer.c ****     uint8_t wrbuf[1];
  58:accelerometer.c ****     uint8_t rdbuf[1];
  59:accelerometer.c ****     wrbuf[0] = reg;
  60:accelerometer.c ****     I2C_Start();
  61:accelerometer.c ****     I2C_I2CMasterClearStatus();
  62:accelerometer.c ****     
  63:accelerometer.c ****     I2C_I2CMasterWriteBuf(ACCEL_ADDR, (uint8_t *)wrbuf, sizeof(wrbuf), I2C_I2C_MODE_NO_STOP);
  64:accelerometer.c ****     while(0u == (I2C_I2CMasterStatus() & I2C_I2C_MSTAT_WR_CMPLT)){}
  65:accelerometer.c ****     
  66:accelerometer.c ****     I2C_I2CMasterReadBuf(ACCEL_ADDR, (uint8_t *)rdbuf, sizeof(rdbuf), I2C_I2C_MODE_REPEAT_START);
  67:accelerometer.c ****     while(0u == (I2C_I2CMasterStatus() & I2C_I2C_MSTAT_RD_CMPLT)){}
  68:accelerometer.c ****     I2C_Stop();
  69:accelerometer.c ****     return rdbuf[0];
  70:accelerometer.c **** }
  71:accelerometer.c **** 
  72:accelerometer.c **** static bool accelerometerWriteRegister(uint8_t reg, uint8_t value){
  27              		.loc 1 72 0
  28              		.cfi_startproc
  29              		@ args = 0, pretend = 0, frame = 8
  30              		@ frame_needed = 0, uses_anonymous_args = 0
  31              	.LVL0:
  32 0000 10B5     		push	{r4, lr}
  33              		.cfi_def_cfa_offset 8
  34              		.cfi_offset 4, -8
  35              		.cfi_offset 14, -4
  36 0002 82B0     		sub	sp, sp, #8
  37              		.cfi_def_cfa_offset 16
  38              	.LVL1:
  73:accelerometer.c ****     bool success = false;
  74:accelerometer.c ****     uint8 wrbuf[2];
  75:accelerometer.c ****     wrbuf[0] = reg;
  39              		.loc 1 75 0
ARM GAS  C:\Users\pietr\AppData\Local\Temp\ccy81PFe.s 			page 3


  40 0004 01AC     		add	r4, sp, #4
  41 0006 2070     		strb	r0, [r4]
  76:accelerometer.c ****     wrbuf[1] = value;
  42              		.loc 1 76 0
  43 0008 6170     		strb	r1, [r4, #1]
  77:accelerometer.c ****     
  78:accelerometer.c ****     I2C_Start();
  44              		.loc 1 78 0
  45 000a FFF7FEFF 		bl	I2C_Start
  46              	.LVL2:
  79:accelerometer.c ****     
  80:accelerometer.c ****     I2C_I2CMasterClearStatus();
  47              		.loc 1 80 0
  48 000e FFF7FEFF 		bl	I2C_I2CMasterClearStatus
  49              	.LVL3:
  81:accelerometer.c ****     I2C_I2CMasterWriteBuf(ACCEL_ADDR, wrbuf, sizeof(wrbuf), I2C_I2C_MODE_COMPLETE_XFER);
  50              		.loc 1 81 0
  51 0012 0023     		movs	r3, #0
  52 0014 0222     		movs	r2, #2
  53 0016 2100     		movs	r1, r4
  54 0018 1820     		movs	r0, #24
  55 001a FFF7FEFF 		bl	I2C_I2CMasterWriteBuf
  56              	.LVL4:
  57              	.L2:
  82:accelerometer.c ****     
  83:accelerometer.c ****     while(0u == (I2C_I2CMasterStatus() & I2C_I2C_MSTAT_WR_CMPLT)){}
  58              		.loc 1 83 0 discriminator 1
  59 001e FFF7FEFF 		bl	I2C_I2CMasterStatus
  60              	.LVL5:
  61 0022 8307     		lsls	r3, r0, #30
  62 0024 FBD5     		bpl	.L2
  84:accelerometer.c ****     
  85:accelerometer.c ****     if(0u == (I2C_I2C_MSTAT_ERR_XFER & I2C_I2CMasterStatus())){
  63              		.loc 1 85 0
  64 0026 FFF7FEFF 		bl	I2C_I2CMasterStatus
  65              	.LVL6:
  66 002a 8305     		lsls	r3, r0, #22
  67 002c 05D4     		bmi	.L4
  86:accelerometer.c ****         if(I2C_I2CMasterGetWriteBufSize() == sizeof(wrbuf)){
  68              		.loc 1 86 0
  69 002e FFF7FEFF 		bl	I2C_I2CMasterGetWriteBufSize
  70              	.LVL7:
  71 0032 0228     		cmp	r0, #2
  72 0034 03D0     		beq	.L5
  73:accelerometer.c ****     uint8 wrbuf[2];
  73              		.loc 1 73 0
  74 0036 0024     		movs	r4, #0
  75 0038 02E0     		b	.L3
  76              	.L4:
  87:accelerometer.c ****             success = true;
  88:accelerometer.c ****         }
  89:accelerometer.c ****     } else {
  90:accelerometer.c ****         success = false;
  77              		.loc 1 90 0
  78 003a 0024     		movs	r4, #0
  79 003c 00E0     		b	.L3
  80              	.L5:
ARM GAS  C:\Users\pietr\AppData\Local\Temp\ccy81PFe.s 			page 4


  87:accelerometer.c ****             success = true;
  81              		.loc 1 87 0
  82 003e 0124     		movs	r4, #1
  83              	.L3:
  84              	.LVL8:
  91:accelerometer.c ****     }
  92:accelerometer.c ****     
  93:accelerometer.c ****     I2C_I2CMasterClearStatus();
  85              		.loc 1 93 0
  86 0040 FFF7FEFF 		bl	I2C_I2CMasterClearStatus
  87              	.LVL9:
  94:accelerometer.c ****     I2C_Stop();
  88              		.loc 1 94 0
  89 0044 FFF7FEFF 		bl	I2C_Stop
  90              	.LVL10:
  95:accelerometer.c ****     return success;
  96:accelerometer.c **** }
  91              		.loc 1 96 0
  92 0048 2000     		movs	r0, r4
  93 004a 02B0     		add	sp, sp, #8
  94              		@ sp needed
  95              	.LVL11:
  96 004c 10BD     		pop	{r4, pc}
  97              		.cfi_endproc
  98              	.LFE38:
  99              		.size	accelerometerWriteRegister, .-accelerometerWriteRegister
 100 004e C046     		.section	.text.accelerometerInit,"ax",%progbits
 101              		.align	2
 102              		.global	accelerometerInit
 103              		.code	16
 104              		.thumb_func
 105              		.type	accelerometerInit, %function
 106              	accelerometerInit:
 107              	.LFB36:
  30:accelerometer.c ****     accelerometerWriteRegister(0x20, 0b01111111); //write CTRL_REG1
 108              		.loc 1 30 0
 109              		.cfi_startproc
 110              		@ args = 0, pretend = 0, frame = 0
 111              		@ frame_needed = 0, uses_anonymous_args = 0
 112 0000 10B5     		push	{r4, lr}
 113              		.cfi_def_cfa_offset 8
 114              		.cfi_offset 4, -8
 115              		.cfi_offset 14, -4
  31:accelerometer.c ****     accelerometerWriteRegister(0x21, 0b00000100); //write CTRL_REG2
 116              		.loc 1 31 0
 117 0002 7F21     		movs	r1, #127
 118 0004 2020     		movs	r0, #32
 119 0006 FFF7FEFF 		bl	accelerometerWriteRegister
 120              	.LVL12:
  32:accelerometer.c ****     accelerometerWriteRegister(0x22, 0b10000000); //write CTRL_REG3
 121              		.loc 1 32 0
 122 000a 0421     		movs	r1, #4
 123 000c 2120     		movs	r0, #33
 124 000e FFF7FEFF 		bl	accelerometerWriteRegister
 125              	.LVL13:
  33:accelerometer.c ****     accelerometerWriteRegister(0x23, 0b00010000); //write CTRL_REG4
 126              		.loc 1 33 0
ARM GAS  C:\Users\pietr\AppData\Local\Temp\ccy81PFe.s 			page 5


 127 0012 8021     		movs	r1, #128
 128 0014 2220     		movs	r0, #34
 129 0016 FFF7FEFF 		bl	accelerometerWriteRegister
 130              	.LVL14:
  34:accelerometer.c ****     accelerometerWriteRegister(0x24, 0b00000000); //write CTRL_REG5
 131              		.loc 1 34 0
 132 001a 1021     		movs	r1, #16
 133 001c 2320     		movs	r0, #35
 134 001e FFF7FEFF 		bl	accelerometerWriteRegister
 135              	.LVL15:
  35:accelerometer.c ****     accelerometerWriteRegister(0x25, 0b00000000); //write CTRL_REG6
 136              		.loc 1 35 0
 137 0022 0021     		movs	r1, #0
 138 0024 2420     		movs	r0, #36
 139 0026 FFF7FEFF 		bl	accelerometerWriteRegister
 140              	.LVL16:
  36:accelerometer.c ****     accelerometerWriteRegister(0x26, 0b00000000); //write REFERENCE
 141              		.loc 1 36 0
 142 002a 0021     		movs	r1, #0
 143 002c 2520     		movs	r0, #37
 144 002e FFF7FEFF 		bl	accelerometerWriteRegister
 145              	.LVL17:
  37:accelerometer.c ****     //single click configuration
 146              		.loc 1 37 0
 147 0032 0021     		movs	r1, #0
 148 0034 2620     		movs	r0, #38
 149 0036 FFF7FEFF 		bl	accelerometerWriteRegister
 150              	.LVL18:
  41:accelerometer.c ****     
 151              		.loc 1 41 0
 152 003a 2A21     		movs	r1, #42
 153 003c 3820     		movs	r0, #56
 154 003e FFF7FEFF 		bl	accelerometerWriteRegister
 155              	.LVL19:
  44:accelerometer.c ****     //time limit of 0x33 is sensitive and seemingly most reliable
 156              		.loc 1 44 0
 157 0042 2021     		movs	r1, #32
 158 0044 3A20     		movs	r0, #58
 159 0046 FFF7FEFF 		bl	accelerometerWriteRegister
 160              	.LVL20:
  46:accelerometer.c ****     
 161              		.loc 1 46 0
 162 004a 3321     		movs	r1, #51
 163 004c 3B20     		movs	r0, #59
 164 004e FFF7FEFF 		bl	accelerometerWriteRegister
 165              	.LVL21:
  49:accelerometer.c ****     
 166              		.loc 1 49 0
 167 0052 1521     		movs	r1, #21
 168 0054 3C20     		movs	r0, #60
 169 0056 FFF7FEFF 		bl	accelerometerWriteRegister
 170              	.LVL22:
  52:accelerometer.c **** }
 171              		.loc 1 52 0
 172 005a 4221     		movs	r1, #66
 173 005c 3D20     		movs	r0, #61
 174 005e FFF7FEFF 		bl	accelerometerWriteRegister
ARM GAS  C:\Users\pietr\AppData\Local\Temp\ccy81PFe.s 			page 6


 175              	.LVL23:
  53:accelerometer.c **** 
 176              		.loc 1 53 0
 177              		@ sp needed
 178 0062 10BD     		pop	{r4, pc}
 179              		.cfi_endproc
 180              	.LFE36:
 181              		.size	accelerometerInit, .-accelerometerInit
 182              		.text
 183              	.Letext0:
 184              		.file 2 "c:\\program files (x86)\\cypress\\psoc creator\\4.2\\psoc creator\\import\\gnu\\arm\\5.4.
 185              		.file 3 "c:\\program files (x86)\\cypress\\psoc creator\\4.2\\psoc creator\\import\\gnu\\arm\\5.4.
 186              		.file 4 "Generated_Source\\PSoC4/cytypes.h"
 187              		.file 5 "Generated_Source\\PSoC4/I2C.h"
 188              		.file 6 "Generated_Source\\PSoC4/I2C_I2C.h"